; ModuleID = '9/365.c'
source_filename = "9/365.c"
target datalayout = "e-m:e-p270:32:32-p271:32:32-p272:64:64-i64:64-f80:128-n8:16:32:64-S128"
target triple = "x86_64-pc-linux-gnu"

%struct.patient_t = type { [10 x i8], i32 }

@.str = private unnamed_addr constant [3 x i8] c"%d\00", align 1
@.str.1 = private unnamed_addr constant [5 x i8] c"%s%d\00", align 1
@.str.2 = private unnamed_addr constant [4 x i8] c"%s\0A\00", align 1

; Function Attrs: noinline nounwind uwtable
define dso_local i32 @main() #0 {
  %1 = alloca i32, align 4
  %2 = alloca [100 x %struct.patient_t], align 16
  %3 = alloca %struct.patient_t, align 4
  %4 = alloca i32, align 4
  %5 = alloca i32, align 4
  %6 = alloca i32, align 4
  store i32 0, i32* %1, align 4
  %7 = call i32 (i8*, ...) @__isoc99_scanf(i8* getelementptr inbounds ([3 x i8], [3 x i8]* @.str, i64 0, i64 0), i32* %6)
  store i32 0, i32* %4, align 4
  br label %8

8:                                                ; preds = %22, %0
  %9 = load i32, i32* %4, align 4
  %10 = load i32, i32* %6, align 4
  %11 = icmp slt i32 %9, %10
  br i1 %11, label %12, label %25

12:                                               ; preds = %8
  %13 = load i32, i32* %4, align 4
  %14 = sext i32 %13 to i64
  %15 = getelementptr inbounds [100 x %struct.patient_t], [100 x %struct.patient_t]* %2, i64 0, i64 %14
  %16 = getelementptr inbounds %struct.patient_t, %struct.patient_t* %15, i32 0, i32 0
  %17 = load i32, i32* %4, align 4
  %18 = sext i32 %17 to i64
  %19 = getelementptr inbounds [100 x %struct.patient_t], [100 x %struct.patient_t]* %2, i64 0, i64 %18
  %20 = getelementptr inbounds %struct.patient_t, %struct.patient_t* %19, i32 0, i32 1
  %21 = call i32 (i8*, ...) @__isoc99_scanf(i8* getelementptr inbounds ([5 x i8], [5 x i8]* @.str.1, i64 0, i64 0), [10 x i8]* %16, i32* %20)
  br label %22

22:                                               ; preds = %12
  %23 = load i32, i32* %4, align 4
  %24 = add nsw i32 %23, 1
  store i32 %24, i32* %4, align 4
  br label %8

25:                                               ; preds = %8
  store i32 0, i32* %4, align 4
  br label %26

26:                                               ; preds = %83, %25
  %27 = load i32, i32* %4, align 4
  %28 = load i32, i32* %6, align 4
  %29 = icmp slt i32 %27, %28
  br i1 %29, label %30, label %86

30:                                               ; preds = %26
  %31 = load i32, i32* %6, align 4
  %32 = sub nsw i32 %31, 1
  store i32 %32, i32* %5, align 4
  br label %33

33:                                               ; preds = %79, %30
  %34 = load i32, i32* %5, align 4
  %35 = load i32, i32* %4, align 4
  %36 = icmp sgt i32 %34, %35
  br i1 %36, label %37, label %82

37:                                               ; preds = %33
  %38 = load i32, i32* %5, align 4
  %39 = sext i32 %38 to i64
  %40 = getelementptr inbounds [100 x %struct.patient_t], [100 x %struct.patient_t]* %2, i64 0, i64 %39
  %41 = getelementptr inbounds %struct.patient_t, %struct.patient_t* %40, i32 0, i32 1
  %42 = load i32, i32* %41, align 4
  %43 = icmp sge i32 %42, 60
  br i1 %43, label %44, label %78

44:                                               ; preds = %37
  %45 = load i32, i32* %5, align 4
  %46 = sext i32 %45 to i64
  %47 = getelementptr inbounds [100 x %struct.patient_t], [100 x %struct.patient_t]* %2, i64 0, i64 %46
  %48 = getelementptr inbounds %struct.patient_t, %struct.patient_t* %47, i32 0, i32 1
  %49 = load i32, i32* %48, align 4
  %50 = load i32, i32* %5, align 4
  %51 = sub nsw i32 %50, 1
  %52 = sext i32 %51 to i64
  %53 = getelementptr inbounds [100 x %struct.patient_t], [100 x %struct.patient_t]* %2, i64 0, i64 %52
  %54 = getelementptr inbounds %struct.patient_t, %struct.patient_t* %53, i32 0, i32 1
  %55 = load i32, i32* %54, align 4
  %56 = icmp sgt i32 %49, %55
  br i1 %56, label %57, label %78

57:                                               ; preds = %44
  %58 = load i32, i32* %5, align 4
  %59 = sext i32 %58 to i64
  %60 = getelementptr inbounds [100 x %struct.patient_t], [100 x %struct.patient_t]* %2, i64 0, i64 %59
  %61 = bitcast %struct.patient_t* %3 to i8*
  %62 = bitcast %struct.patient_t* %60 to i8*
  call void @llvm.memcpy.p0i8.p0i8.i64(i8* align 4 %61, i8* align 16 %62, i64 16, i1 false)
  %63 = load i32, i32* %5, align 4
  %64 = sext i32 %63 to i64
  %65 = getelementptr inbounds [100 x %struct.patient_t], [100 x %struct.patient_t]* %2, i64 0, i64 %64
  %66 = load i32, i32* %5, align 4
  %67 = sub nsw i32 %66, 1
  %68 = sext i32 %67 to i64
  %69 = getelementptr inbounds [100 x %struct.patient_t], [100 x %struct.patient_t]* %2, i64 0, i64 %68
  %70 = bitcast %struct.patient_t* %65 to i8*
  %71 = bitcast %struct.patient_t* %69 to i8*
  call void @llvm.memcpy.p0i8.p0i8.i64(i8* align 16 %70, i8* align 16 %71, i64 16, i1 false)
  %72 = load i32, i32* %5, align 4
  %73 = sub nsw i32 %72, 1
  %74 = sext i32 %73 to i64
  %75 = getelementptr inbounds [100 x %struct.patient_t], [100 x %struct.patient_t]* %2, i64 0, i64 %74
  %76 = bitcast %struct.patient_t* %75 to i8*
  %77 = bitcast %struct.patient_t* %3 to i8*
  call void @llvm.memcpy.p0i8.p0i8.i64(i8* align 16 %76, i8* align 4 %77, i64 16, i1 false)
  br label %78

78:                                               ; preds = %57, %44, %37
  br label %79

79:                                               ; preds = %78
  %80 = load i32, i32* %5, align 4
  %81 = add nsw i32 %80, -1
  store i32 %81, i32* %5, align 4
  br label %33

82:                                               ; preds = %33
  br label %83

83:                                               ; preds = %82
  %84 = load i32, i32* %4, align 4
  %85 = add nsw i32 %84, 1
  store i32 %85, i32* %4, align 4
  br label %26

86:                                               ; preds = %26
  store i32 0, i32* %4, align 4
  br label %87

87:                                               ; preds = %98, %86
  %88 = load i32, i32* %4, align 4
  %89 = load i32, i32* %6, align 4
  %90 = icmp slt i32 %88, %89
  br i1 %90, label %91, label %101

91:                                               ; preds = %87
  %92 = load i32, i32* %4, align 4
  %93 = sext i32 %92 to i64
  %94 = getelementptr inbounds [100 x %struct.patient_t], [100 x %struct.patient_t]* %2, i64 0, i64 %93
  %95 = getelementptr inbounds %struct.patient_t, %struct.patient_t* %94, i32 0, i32 0
  %96 = getelementptr inbounds [10 x i8], [10 x i8]* %95, i64 0, i64 0
  %97 = call i32 (i8*, ...) @printf(i8* getelementptr inbounds ([4 x i8], [4 x i8]* @.str.2, i64 0, i64 0), i8* %96)
  br label %98

98:                                               ; preds = %91
  %99 = load i32, i32* %4, align 4
  %100 = add nsw i32 %99, 1
  store i32 %100, i32* %4, align 4
  br label %87

101:                                              ; preds = %87
  ret i32 0
}

declare dso_local i32 @__isoc99_scanf(i8*, ...) #1

; Function Attrs: argmemonly nounwind willreturn
declare void @llvm.memcpy.p0i8.p0i8.i64(i8* noalias nocapture writeonly, i8* noalias nocapture readonly, i64, i1 immarg) #2

declare dso_local i32 @printf(i8*, ...) #1


!llvm.module.flags = !{!0}
!llvm.ident = !{!1}

!0 = !{i32 1, !"wchar_size", i32 4}
!1 = !{!"clang version 10.0.0-4ubuntu1 "}
